target datalayout = "e-m:e-p270:32:32-p271:32:32-p272:64:64-i64:64-i128:128-f80:128-n8:16:32:64-S128"
target triple = "x86_64-pc-linux-gnu"

%"class.std::__cxx11::basic_string" = type { %"struct.std::__cxx11::basic_string<char>::_Alloc_hider", i64, %union.anon }
%"struct.std::__cxx11::basic_string<char>::_Alloc_hider" = type { ptr }
%union.anon = type { i64, [8 x i8] }
%class.AstNode = type { ptr, ptr, ptr, ptr, ptr, ptr, ptr, ptr, %class.VNType, %struct.anon, i8, i32, ptr, ptr, ptr, ptr, %class.VNUser, i32, i32, %class.VNUser, %class.VNUser, i32, i32, %class.VNUser }
%class.VNType = type { i16 }
%struct.anon = type { i8 }
%class.VNUser = type { %union.anon.77 }
%union.anon.77 = type { ptr }
%class.AstNodeSimpleText = type <{ %class.AstNodeText, i8, [7 x i8] }>
%class.AstNodeText = type { %class.AstNode, %"class.std::__cxx11::basic_string" }

@_ZTV11AstNodeStmt = external unnamed_addr constant { [39 x ptr] }, align 8
@.str.510 = private unnamed_addr constant [48 x i8] c"VL_EXEC_TRACE_ADD_RECORD(vlSymsp).sectionPush(\22\00", align 1
@.str.511 = private unnamed_addr constant [5 x i8] c"\22);\0A\00", align 1
@_ZTV8AstCStmt = external unnamed_addr constant { [39 x ptr] }, align 8
@_ZTV7AstText = external unnamed_addr constant { [39 x ptr] }, align 8
@_ZTV17AstNodeSimpleText = external unnamed_addr constant { [39 x ptr] }, align 8
@_ZTV11AstNodeText = external unnamed_addr constant { [39 x ptr] }, align 8

; Function Attrs: mustprogress uwtable
define linkonce_odr dso_local void @_ZN11AstNodeTextC2E6VNTypeP8FileLineRKNSt7__cxx1112basic_stringIcSt11char_traitsIcESaIcEEE(ptr noundef nonnull align 8 dereferenceable(184) %0, i16 %1, ptr noundef %2, ptr noundef nonnull align 8 dereferenceable(32) %3) unnamed_addr #4 comdat align 2 personality ptr @__gxx_personality_v0 {
  %5 = alloca %class.VNType, align 2
  %6 = alloca ptr, align 8
  %7 = alloca ptr, align 8
  %8 = alloca ptr, align 8
  %9 = alloca %class.VNType, align 2
  %10 = alloca ptr, align 8
  %11 = alloca i32, align 4
  %12 = getelementptr inbounds %class.VNType, ptr %5, i32 0, i32 0
  store i16 %1, ptr %12, align 2
  store ptr %0, ptr %6, align 8
  store ptr %2, ptr %7, align 8
  store ptr %3, ptr %8, align 8
  %13 = load ptr, ptr %6, align 8
  call void @llvm.memcpy.p0.p0.i64(ptr align 2 %9, ptr align 2 %5, i64 2, i1 false)
  %14 = load ptr, ptr %7, align 8
  %15 = getelementptr inbounds %class.VNType, ptr %9, i32 0, i32 0
  %16 = load i16, ptr %15, align 2
  call void @_ZN7AstNodeC2E6VNTypeP8FileLine(ptr noundef nonnull align 8 dereferenceable(152) %13, i16 %16, ptr noundef %14)
  store ptr getelementptr inbounds inrange(-16, 296) ({ [39 x ptr] }, ptr @_ZTV11AstNodeText, i32 0, i32 0, i32 2), ptr %13, align 8
  %17 = getelementptr inbounds %class.AstNodeText, ptr %13, i32 0, i32 1
  %18 = load ptr, ptr %8, align 8
  invoke void @_ZNSt7__cxx1112basic_stringIcSt11char_traitsIcESaIcEEC1ERKS4_(ptr noundef nonnull align 8 dereferenceable(32) %17, ptr noundef nonnull align 8 dereferenceable(32) %18)
          to label %19 unwind label %20

19:                                               ; preds = %4
  ret void

20:                                               ; preds = %4
  %21 = landingpad { ptr, i32 }
          cleanup
  %22 = extractvalue { ptr, i32 } %21, 0
  store ptr %22, ptr %10, align 8
  %23 = extractvalue { ptr, i32 } %21, 1
  store i32 %23, ptr %11, align 4
  call void @_ZN7AstNodeD2Ev(ptr noundef nonnull align 8 dereferenceable(152) %13) #3
  br label %24

24:                                               ; preds = %20
  %25 = load ptr, ptr %10, align 8
  %26 = load i32, ptr %11, align 4
  %27 = insertvalue { ptr, i32 } poison, ptr %25, 0
  %28 = insertvalue { ptr, i32 } %27, i32 %26, 1
  resume { ptr, i32 } %28
}

; Function Attrs: mustprogress nounwind uwtable
define linkonce_odr dso_local void @_ZN7AstNodeD2Ev(ptr noundef nonnull align 8 dereferenceable(152) %0) unnamed_addr #5 comdat align 2 {
  %2 = alloca ptr, align 8
  store ptr %0, ptr %2, align 8
  ret void
}

; Function Attrs: mustprogress uwtable
define linkonce_odr dso_local void @_ZN7AstNode8addNOp1pEPS_(ptr noundef nonnull align 8 dereferenceable(152) %0, ptr noundef %1) #4 comdat align 2 {
  %3 = alloca ptr, align 8
  %4 = alloca ptr, align 8
  store ptr %0, ptr %3, align 8
  store ptr %1, ptr %4, align 8
  %5 = load ptr, ptr %3, align 8
  %6 = load ptr, ptr %4, align 8
  %7 = icmp ne ptr %6, null
  br i1 %7, label %8, label %10

8:                                                ; preds = %2
  %9 = load ptr, ptr %4, align 8
  call void @_ZN7AstNode7addOp1pEPS_(ptr noundef nonnull align 8 dereferenceable(152) %5, ptr noundef %9)
  br label %10

10:                                               ; preds = %8, %2
  ret void
}

; Function Attrs: mustprogress uwtable
define linkonce_odr dso_local void @_ZN17AstNodeSimpleTextC2E6VNTypeP8FileLineRKNSt7__cxx1112basic_stringIcSt11char_traitsIcESaIcEEEb(ptr noundef nonnull align 8 dereferenceable(185) %0, i16 %1, ptr noundef %2, ptr noundef nonnull align 8 dereferenceable(32) %3, i1 noundef zeroext %4) unnamed_addr #4 comdat align 2 {
  %6 = alloca %class.VNType, align 2
  %7 = alloca ptr, align 8
  %8 = alloca ptr, align 8
  %9 = alloca ptr, align 8
  %10 = alloca i8, align 1
  %11 = alloca %class.VNType, align 2
  %12 = getelementptr inbounds %class.VNType, ptr %6, i32 0, i32 0
  store i16 %1, ptr %12, align 2
  store ptr %0, ptr %7, align 8
  store ptr %2, ptr %8, align 8
  store ptr %3, ptr %9, align 8
  %13 = zext i1 %4 to i8
  store i8 %13, ptr %10, align 1
  %14 = load ptr, ptr %7, align 8
  call void @llvm.memcpy.p0.p0.i64(ptr align 2 %11, ptr align 2 %6, i64 2, i1 false)
  %15 = load ptr, ptr %8, align 8
  %16 = load ptr, ptr %9, align 8
  %17 = getelementptr inbounds %class.VNType, ptr %11, i32 0, i32 0
  %18 = load i16, ptr %17, align 2
  call void @_ZN11AstNodeTextC2E6VNTypeP8FileLineRKNSt7__cxx1112basic_stringIcSt11char_traitsIcESaIcEEE(ptr noundef nonnull align 8 dereferenceable(184) %14, i16 %18, ptr noundef %15, ptr noundef nonnull align 8 dereferenceable(32) %16)
  store ptr getelementptr inbounds inrange(-16, 296) ({ [39 x ptr] }, ptr @_ZTV17AstNodeSimpleText, i32 0, i32 0, i32 2), ptr %14, align 8
  %19 = getelementptr inbounds %class.AstNodeSimpleText, ptr %14, i32 0, i32 1
  %20 = load i8, ptr %10, align 1
  %21 = trunc i8 %20 to i1
  %22 = zext i1 %21 to i8
  store i8 %22, ptr %19, align 8
  ret void
}

; Function Attrs: mustprogress nounwind uwtable
define linkonce_odr dso_local void @_ZN11AstNodeStmtD2Ev(ptr noundef nonnull align 8 dereferenceable(152) %0) unnamed_addr #5 comdat align 2 {
  %2 = alloca ptr, align 8
  store ptr %0, ptr %2, align 8
  %3 = load ptr, ptr %2, align 8
  call void @_ZN7AstNodeD2Ev(ptr noundef nonnull align 8 dereferenceable(152) %3) #3
  ret void
}

; Function Attrs: mustprogress uwtable
define linkonce_odr dso_local void @_ZN8AstCStmt9addExprspEP7AstNode(ptr noundef nonnull align 8 dereferenceable(152) %0, ptr noundef %1) #4 comdat align 2 {
  %3 = alloca ptr, align 8
  %4 = alloca ptr, align 8
  store ptr %0, ptr %3, align 8
  store ptr %1, ptr %4, align 8
  %5 = load ptr, ptr %3, align 8
  %6 = load ptr, ptr %4, align 8
  call void @_ZN7AstNode8addNOp1pEPS_(ptr noundef nonnull align 8 dereferenceable(152) %5, ptr noundef %6)
  ret void
}

; Function Attrs: mustprogress uwtable
define linkonce_odr dso_local void @_ZN7AstTextC2EP8FileLineRKNSt7__cxx1112basic_stringIcSt11char_traitsIcESaIcEEEb(ptr noundef nonnull align 8 dereferenceable(192) %0, ptr noundef %1, ptr noundef nonnull align 8 dereferenceable(32) %2, i1 noundef zeroext %3) unnamed_addr #4 comdat align 2 {
  %5 = alloca ptr, align 8
  %6 = alloca ptr, align 8
  %7 = alloca ptr, align 8
  %8 = alloca i8, align 1
  %9 = alloca %class.VNType, align 2
  store ptr %0, ptr %5, align 8
  store ptr %1, ptr %6, align 8
  store ptr %2, ptr %7, align 8
  %10 = zext i1 %3 to i8
  store i8 %10, ptr %8, align 1
  %11 = load ptr, ptr %5, align 8
  call void @_ZN6VNTypeC2ENS_2enE(ptr noundef nonnull align 2 dereferenceable(2) %9, i16 noundef zeroext 419)
  %12 = load ptr, ptr %6, align 8
  %13 = load ptr, ptr %7, align 8
  %14 = load i8, ptr %8, align 1
  %15 = trunc i8 %14 to i1
  %16 = getelementptr inbounds %class.VNType, ptr %9, i32 0, i32 0
  %17 = load i16, ptr %16, align 2
  call void @_ZN17AstNodeSimpleTextC2E6VNTypeP8FileLineRKNSt7__cxx1112basic_stringIcSt11char_traitsIcESaIcEEEb(ptr noundef nonnull align 8 dereferenceable(185) %11, i16 %17, ptr noundef %12, ptr noundef nonnull align 8 dereferenceable(32) %13, i1 noundef zeroext %15)
  store ptr getelementptr inbounds inrange(-16, 296) ({ [39 x ptr] }, ptr @_ZTV7AstText, i32 0, i32 0, i32 2), ptr %11, align 8
  ret void
}

; Function Attrs: mustprogress uwtable
define linkonce_odr dso_local void @_ZN11AstNodeStmtC2E6VNTypeP8FileLine(ptr noundef nonnull align 8 dereferenceable(152) %0, i16 %1, ptr noundef %2) unnamed_addr #4 comdat align 2 {
  %4 = alloca %class.VNType, align 2
  %5 = alloca ptr, align 8
  %6 = alloca ptr, align 8
  %7 = alloca %class.VNType, align 2
  %8 = getelementptr inbounds %class.VNType, ptr %4, i32 0, i32 0
  store i16 %1, ptr %8, align 2
  store ptr %0, ptr %5, align 8
  store ptr %2, ptr %6, align 8
  %9 = load ptr, ptr %5, align 8
  call void @llvm.memcpy.p0.p0.i64(ptr align 2 %7, ptr align 2 %4, i64 2, i1 false)
  %10 = load ptr, ptr %6, align 8
  %11 = getelementptr inbounds %class.VNType, ptr %7, i32 0, i32 0
  %12 = load i16, ptr %11, align 2
  call void @_ZN7AstNodeC2E6VNTypeP8FileLine(ptr noundef nonnull align 8 dereferenceable(152) %9, i16 %12, ptr noundef %10)
  store ptr getelementptr inbounds inrange(-16, 296) ({ [39 x ptr] }, ptr @_ZTV11AstNodeStmt, i32 0, i32 0, i32 2), ptr %9, align 8
  ret void
}

; Function Attrs: mustprogress nounwind uwtable
define linkonce_odr dso_local void @_ZN6VNTypeC2ENS_2enE(ptr noundef nonnull align 2 dereferenceable(2) %0, i16 noundef zeroext %1) unnamed_addr #5 comdat align 2 {
  %3 = alloca ptr, align 8
  %4 = alloca i16, align 2
  store ptr %0, ptr %3, align 8
  store i16 %1, ptr %4, align 2
  %5 = load ptr, ptr %3, align 8
  %6 = getelementptr inbounds %class.VNType, ptr %5, i32 0, i32 0
  %7 = load i16, ptr %4, align 2
  store i16 %7, ptr %6, align 2
  ret void
}

; Function Attrs: mustprogress uwtable
define linkonce_odr dso_local void @_ZN8AstCStmtC2EP8FileLineRKNSt7__cxx1112basic_stringIcSt11char_traitsIcESaIcEEE(ptr noundef nonnull align 8 dereferenceable(152) %0, ptr noundef %1, ptr noundef nonnull align 8 dereferenceable(32) %2) unnamed_addr #4 comdat align 2 personality ptr @__gxx_personality_v0 {
  %4 = alloca ptr, align 8
  %5 = alloca ptr, align 8
  %6 = alloca ptr, align 8
  %7 = alloca %class.VNType, align 2
  %8 = alloca ptr, align 8
  %9 = alloca i32, align 4
  store ptr %0, ptr %4, align 8
  store ptr %1, ptr %5, align 8
  store ptr %2, ptr %6, align 8
  %10 = load ptr, ptr %4, align 8
  call void @_ZN6VNTypeC2ENS_2enE(ptr noundef nonnull align 2 dereferenceable(2) %7, i16 noundef zeroext 348)
  %11 = load ptr, ptr %5, align 8
  %12 = getelementptr inbounds %class.VNType, ptr %7, i32 0, i32 0
  %13 = load i16, ptr %12, align 2
  call void @_ZN11AstNodeStmtC2E6VNTypeP8FileLine(ptr noundef nonnull align 8 dereferenceable(152) %10, i16 %13, ptr noundef %11)
  store ptr getelementptr inbounds inrange(-16, 296) ({ [39 x ptr] }, ptr @_ZTV8AstCStmt, i32 0, i32 0, i32 2), ptr %10, align 8
  %14 = invoke noalias noundef nonnull ptr @_Znwm(i64 noundef 192) #19
          to label %15 unwind label %20

15:                                               ; preds = %3
  %16 = load ptr, ptr %5, align 8
  %17 = load ptr, ptr %6, align 8
  invoke void @_ZN7AstTextC2EP8FileLineRKNSt7__cxx1112basic_stringIcSt11char_traitsIcESaIcEEEb(ptr noundef nonnull align 8 dereferenceable(192) %14, ptr noundef %16, ptr noundef nonnull align 8 dereferenceable(32) %17, i1 noundef zeroext true)
          to label %18 unwind label %24

18:                                               ; preds = %15
  invoke void @_ZN8AstCStmt9addExprspEP7AstNode(ptr noundef nonnull align 8 dereferenceable(152) %10, ptr noundef %14)
          to label %19 unwind label %20

19:                                               ; preds = %18
  ret void

20:                                               ; preds = %18, %3
  %21 = landingpad { ptr, i32 }
          cleanup
  %22 = extractvalue { ptr, i32 } %21, 0
  store ptr %22, ptr %8, align 8
  %23 = extractvalue { ptr, i32 } %21, 1
  store i32 %23, ptr %9, align 4
  br label %28

24:                                               ; preds = %15
  %25 = landingpad { ptr, i32 }
          cleanup
  %26 = extractvalue { ptr, i32 } %25, 0
  store ptr %26, ptr %8, align 8
  %27 = extractvalue { ptr, i32 } %25, 1
  store i32 %27, ptr %9, align 4
  call void @_ZdlPv(ptr noundef %14) #20
  br label %28

28:                                               ; preds = %24, %20
  call void @_ZN11AstNodeStmtD2Ev(ptr noundef nonnull align 8 dereferenceable(152) %10) #3
  br label %29

29:                                               ; preds = %28
  %30 = load ptr, ptr %8, align 8
  %31 = load i32, ptr %9, align 4
  %32 = insertvalue { ptr, i32 } poison, ptr %30, 0
  %33 = insertvalue { ptr, i32 } %32, i32 %31, 1
  resume { ptr, i32 } %33
}

; Function Attrs: mustprogress uwtable
define linkonce_odr dso_local void @_ZStplIcSt11char_traitsIcESaIcEENSt7__cxx1112basic_stringIT_T0_T1_EEOS8_PKS5_(ptr dead_on_unwind noalias writable sret(%"class.std::__cxx11::basic_string") align 8 %0, ptr noundef nonnull align 8 dereferenceable(32) %1, ptr noundef %2) #4 comdat {
  %4 = alloca ptr, align 8
  %5 = alloca ptr, align 8
  %6 = alloca ptr, align 8
  store ptr %0, ptr %4, align 8
  store ptr %1, ptr %5, align 8
  store ptr %2, ptr %6, align 8
  %7 = load ptr, ptr %5, align 8
  %8 = load ptr, ptr %6, align 8
  %9 = call noundef nonnull align 8 dereferenceable(32) ptr @_ZNSt7__cxx1112basic_stringIcSt11char_traitsIcESaIcEE6appendEPKc(ptr noundef nonnull align 8 dereferenceable(32) %7, ptr noundef %8)
  call void @_ZNSt7__cxx1112basic_stringIcSt11char_traitsIcESaIcEEC1EOS4_(ptr noundef nonnull align 8 dereferenceable(32) %0, ptr noundef nonnull align 8 dereferenceable(32) %9) #3
  ret void
}

; Function Attrs: mustprogress uwtable
define internal noundef ptr @_ZN7V3Sched12_GLOBAL__N_119profExecSectionPushEP8FileLineRKNSt7__cxx1112basic_stringIcSt11char_traitsIcESaIcEEE(ptr noundef %0, ptr noundef nonnull align 8 dereferenceable(32) %1) #4 personality ptr @__gxx_personality_v0 {
  %3 = alloca ptr, align 8
  %4 = alloca ptr, align 8
  %5 = alloca %"class.std::__cxx11::basic_string", align 8
  %6 = alloca %"class.std::__cxx11::basic_string", align 8
  %7 = alloca ptr, align 8
  %8 = alloca i32, align 4
  %9 = alloca i1, align 1
  store ptr %0, ptr %3, align 8
  store ptr %1, ptr %4, align 8
  %10 = call noalias noundef nonnull ptr @_Znwm(i64 noundef 152) #19
  store i1 true, ptr %9, align 1
  %11 = load ptr, ptr %3, align 8
  %12 = load ptr, ptr %4, align 8
  invoke void @_ZStplIcSt11char_traitsIcESaIcEENSt7__cxx1112basic_stringIT_T0_T1_EEPKS5_RKS8_(ptr dead_on_unwind writable sret(%"class.std::__cxx11::basic_string") align 8 %6, ptr noundef @.str.510, ptr noundef nonnull align 8 dereferenceable(32) %12)
          to label %13 unwind label %16

13:                                               ; preds = %2
  invoke void @_ZStplIcSt11char_traitsIcESaIcEENSt7__cxx1112basic_stringIT_T0_T1_EEOS8_PKS5_(ptr dead_on_unwind writable sret(%"class.std::__cxx11::basic_string") align 8 %5, ptr noundef nonnull align 8 dereferenceable(32) %6, ptr noundef @.str.511)
          to label %14 unwind label %20

14:                                               ; preds = %13
  invoke void @_ZN8AstCStmtC2EP8FileLineRKNSt7__cxx1112basic_stringIcSt11char_traitsIcESaIcEEE(ptr noundef nonnull align 8 dereferenceable(152) %10, ptr noundef %11, ptr noundef nonnull align 8 dereferenceable(32) %5)
          to label %15 unwind label %24

15:                                               ; preds = %14
  store i1 false, ptr %9, align 1
  call void @_ZNSt7__cxx1112basic_stringIcSt11char_traitsIcESaIcEED1Ev(ptr noundef nonnull align 8 dereferenceable(32) %5) #3
  call void @_ZNSt7__cxx1112basic_stringIcSt11char_traitsIcESaIcEED1Ev(ptr noundef nonnull align 8 dereferenceable(32) %6) #3
  ret ptr %10

16:                                               ; preds = %2
  %17 = landingpad { ptr, i32 }
          cleanup
  %18 = extractvalue { ptr, i32 } %17, 0
  store ptr %18, ptr %7, align 8
  %19 = extractvalue { ptr, i32 } %17, 1
  store i32 %19, ptr %8, align 4
  br label %29

20:                                               ; preds = %13
  %21 = landingpad { ptr, i32 }
          cleanup
  %22 = extractvalue { ptr, i32 } %21, 0
  store ptr %22, ptr %7, align 8
  %23 = extractvalue { ptr, i32 } %21, 1
  store i32 %23, ptr %8, align 4
  br label %28

24:                                               ; preds = %14
  %25 = landingpad { ptr, i32 }
          cleanup
  %26 = extractvalue { ptr, i32 } %25, 0
  store ptr %26, ptr %7, align 8
  %27 = extractvalue { ptr, i32 } %25, 1
  store i32 %27, ptr %8, align 4
  call void @_ZNSt7__cxx1112basic_stringIcSt11char_traitsIcESaIcEED1Ev(ptr noundef nonnull align 8 dereferenceable(32) %5) #3
  br label %28

28:                                               ; preds = %24, %20
  call void @_ZNSt7__cxx1112basic_stringIcSt11char_traitsIcESaIcEED1Ev(ptr noundef nonnull align 8 dereferenceable(32) %6) #3
  br label %29

29:                                               ; preds = %28, %16
  %30 = load i1, ptr %9, align 1
  br i1 %30, label %31, label %32

31:                                               ; preds = %29
  call void @_ZdlPv(ptr noundef %10) #20
  br label %32

32:                                               ; preds = %31, %29
  br label %33

33:                                               ; preds = %32
  %34 = load ptr, ptr %7, align 8
  %35 = load i32, ptr %8, align 4
  %36 = insertvalue { ptr, i32 } poison, ptr %34, 0
  %37 = insertvalue { ptr, i32 } %36, i32 %35, 1
  resume { ptr, i32 } %37
}