; Function Attrs: mustprogress uwtable
define internal fastcc noundef nonnull ptr @_ZN7V3Sched12_GLOBAL__N_119profExecSectionPushEP8FileLineRKNSt7__cxx1112basic_stringIcSt11char_traitsIcESaIcEEE(ptr noundef %0, ptr noundef nonnull align 8 dereferenceable(32) %1) unnamed_addr #3 personality ptr @__gxx_personality_v0 {
  %3 = alloca %"class.std::__cxx11::basic_string", align 8
  %4 = alloca %"class.std::__cxx11::basic_string", align 8
  %5 = tail call noalias noundef nonnull dereferenceable(152) ptr @_Znwm(i64 noundef 152) #26
  invoke void @_ZStplIcSt11char_traitsIcESaIcEENSt7__cxx1112basic_stringIT_T0_T1_EEPKS5_RKS8_(ptr dead_on_unwind nonnull writable sret(%"class.std::__cxx11::basic_string") align 8 %4, ptr noundef nonnull @.str.510, ptr noundef nonnull align 8 dereferenceable(32) %1)
          to label %6 unwind label %14

6:                                                ; preds = %2
  %7 = invoke noundef nonnull align 8 dereferenceable(32) ptr @_ZNSt7__cxx1112basic_stringIcSt11char_traitsIcESaIcEE6appendEPKc(ptr noundef nonnull align 8 dereferenceable(32) %4, ptr noundef nonnull @.str.511)
          to label %8 unwind label %16

8:                                                ; preds = %6
  call void @_ZNSt7__cxx1112basic_stringIcSt11char_traitsIcESaIcEEC1EOS4_(ptr noundef nonnull align 8 dereferenceable(32) %3, ptr noundef nonnull align 8 dereferenceable(32) %7) #24
  invoke void @_ZN7AstNodeC2E6VNTypeP8FileLine(ptr noundef nonnull align 8 dereferenceable(152) %5, i16 348, ptr noundef %0)
          to label %.noexc unwind label %18

.noexc:                                           ; preds = %8
  store ptr getelementptr inbounds inrange(-16, 296) ({ [39 x ptr] }, ptr @_ZTV8AstCStmt, i64 0, i32 0, i64 2), ptr %5, align 8
  %9 = invoke noalias noundef nonnull dereferenceable(192) ptr @_Znwm(i64 noundef 192) #26
          to label %.noexc8 unwind label %18

.noexc8:                                          ; preds = %.noexc
  invoke void @_ZN7AstNodeC2E6VNTypeP8FileLine(ptr noundef nonnull align 8 dereferenceable(152) %9, i16 419, ptr noundef %0)
          to label %.noexc.i unwind label %12

.noexc.i:                                         ; preds = %.noexc8
  store ptr getelementptr inbounds inrange(-16, 296) ({ [39 x ptr] }, ptr @_ZTV11AstNodeText, i64 0, i32 0, i64 2), ptr %9, align 8
  %10 = getelementptr inbounds i8, ptr %9, i64 152
  invoke void @_ZNSt7__cxx1112basic_stringIcSt11char_traitsIcESaIcEEC1ERKS4_(ptr noundef nonnull align 8 dereferenceable(32) %10, ptr noundef nonnull align 8 dereferenceable(32) %3)
          to label %_ZN8AstCStmt9addExprspEP7AstNode.exit.i unwind label %12

_ZN8AstCStmt9addExprspEP7AstNode.exit.i:          ; preds = %.noexc.i
  %11 = getelementptr inbounds i8, ptr %9, i64 184
  store i8 1, ptr %11, align 8
  store ptr getelementptr inbounds inrange(-16, 296) ({ [39 x ptr] }, ptr @_ZTV7AstText, i64 0, i32 0, i64 2), ptr %9, align 8
  invoke void @_ZN7AstNode7addOp1pEPS_(ptr noundef nonnull align 8 dereferenceable(152) %5, ptr noundef nonnull %9)
          to label %_ZN8AstCStmtC2EP8FileLineRKNSt7__cxx1112basic_stringIcSt11char_traitsIcESaIcEEE.exit unwind label %18

12:                                               ; preds = %.noexc.i, %.noexc8
  %13 = landingpad { ptr, i32 }
          cleanup
  call void @_ZdlPv(ptr noundef nonnull %9) #27
  br label %.body

_ZN8AstCStmtC2EP8FileLineRKNSt7__cxx1112basic_stringIcSt11char_traitsIcESaIcEEE.exit: ; preds = %_ZN8AstCStmt9addExprspEP7AstNode.exit.i
  call void @_ZNSt7__cxx1112basic_stringIcSt11char_traitsIcESaIcEED1Ev(ptr noundef nonnull align 8 dereferenceable(32) %3) #24
  call void @_ZNSt7__cxx1112basic_stringIcSt11char_traitsIcESaIcEED1Ev(ptr noundef nonnull align 8 dereferenceable(32) %4) #24
  ret ptr %5

14:                                               ; preds = %2
  %15 = landingpad { ptr, i32 }
          cleanup
  br label %21

16:                                               ; preds = %6
  %17 = landingpad { ptr, i32 }
          cleanup
  br label %20

18:                                               ; preds = %_ZN8AstCStmt9addExprspEP7AstNode.exit.i, %.noexc, %8
  %19 = landingpad { ptr, i32 }
          cleanup
  br label %.body

.body:                                            ; preds = %12, %18
  %eh.lpad-body = phi { ptr, i32 } [ %19, %18 ], [ %13, %12 ]
  call void @_ZNSt7__cxx1112basic_stringIcSt11char_traitsIcESaIcEED1Ev(ptr noundef nonnull align 8 dereferenceable(32) %3) #24
  br label %20

20:                                               ; preds = %.body, %16
  %.pn = phi { ptr, i32 } [ %eh.lpad-body, %.body ], [ %17, %16 ]
  call void @_ZNSt7__cxx1112basic_stringIcSt11char_traitsIcESaIcEED1Ev(ptr noundef nonnull align 8 dereferenceable(32) %4) #24
  br label %21

21:                                               ; preds = %14, %20
  %.pn.pn = phi { ptr, i32 } [ %.pn, %20 ], [ %15, %14 ]
  call void @_ZdlPv(ptr noundef nonnull %5) #27
  resume { ptr, i32 } %.pn.pn
}